target datalayout = "e-m:e-p270:32:32-p271:32:32-p272:64:64-i64:64-i128:128-f80:128-n8:16:32:64-S128"
target triple = "x86_64-pc-linux-gnu"

%struct.except_id_t = type { i64, i64 }
%struct._packet_info = type { ptr, ptr, i32, i32, %struct.nstime_t, %struct.nstime_t, %struct.nstime_t, i8, ptr, ptr, ptr, ptr, %struct._address, %struct._address, %struct._address, %struct._address, %struct._address, %struct._address, i32, ptr, i8, [3 x i8], %struct.anon, i32, i32, i32, i32, ptr, i8, ptr, ptr, i16, i16, i32, i32, i16, i32, i32, ptr, ptr, ptr, i8, i8, i16, i16, i16, i32, i16, i16, ptr, ptr, ptr, ptr, ptr, i32, i32 }
%struct.nstime_t = type { i64, i32 }
%struct._address = type { i32, i32, ptr, ptr }
%struct.anon = type { i8, [3 x i8] }
%struct.infinibandinfo = type { ptr, i8, i8, i16, i32, i64, i32, i32, i8, i8 }
%struct.except_stacknode = type { ptr, i32, %union.anon }
%union.anon = type { ptr }
%struct.except_catch = type { ptr, i64, %struct.except_t, [1 x %struct.__jmp_buf_tag] }
%struct.except_t = type { %struct.except_id_t, ptr, ptr }
%struct.__jmp_buf_tag = type { [8 x i64], i32, %struct.__sigset_t }
%struct.__sigset_t = type { [16 x i64] }

@hf_infiniband_etype = internal global i32 0, align 4
@hf_infiniband_payload = internal global i32 0, align 4
@hf_infiniband_reserved = internal global i32 0, align 4
@ett_payload = internal global i32 0, align 4
@ethertype_dissector_table = internal global ptr null, align 8
@.str.1230 = private unnamed_addr constant [3 x i8] c"%s\00", align 1
@dissect_eth_over_ib.catch_spec = internal constant [1 x %struct.except_id_t] [%struct.except_id_t { i64 1, i64 0 }], align 16
@.str.1589 = private unnamed_addr constant [51 x i8] c"IBA Payload - appears to be EtherType encapsulated\00", align 1

; Function Attrs: null_pointer_is_valid sspstrong uwtable
define internal zeroext i1 @dissect_eth_over_ib(ptr noundef %0, ptr noundef %1, ptr noundef %2, ptr noundef %3) #0 {
  %5 = alloca i1, align 1
  %6 = alloca ptr, align 8
  %7 = alloca ptr, align 8
  %8 = alloca ptr, align 8
  %9 = alloca ptr, align 8
  %10 = alloca i16, align 2
  %11 = alloca i16, align 2
  %12 = alloca ptr, align 8
  %13 = alloca ptr, align 8
  %14 = alloca ptr, align 8
  %15 = alloca i8, align 1
  %16 = alloca i32, align 4
  %17 = alloca ptr, align 8
  %18 = alloca i32, align 4
  %19 = alloca %struct.except_stacknode, align 8
  %20 = alloca %struct.except_catch, align 8
  %21 = alloca ptr, align 8
  %22 = alloca ptr, align 8
  store ptr %0, ptr %6, align 8
  store ptr %1, ptr %7, align 8
  store ptr %2, ptr %8, align 8
  store ptr %3, ptr %9, align 8
  call void @llvm.lifetime.start.p0(i64 2, ptr %10) #18
  call void @llvm.lifetime.start.p0(i64 2, ptr %11) #18
  call void @llvm.lifetime.start.p0(i64 8, ptr %12) #18
  call void @llvm.lifetime.start.p0(i64 8, ptr %13) #18
  call void @llvm.lifetime.start.p0(i64 8, ptr %14) #18
  %23 = load ptr, ptr %9, align 8
  store ptr %23, ptr %14, align 8
  call void @llvm.lifetime.start.p0(i64 1, ptr %15) #18
  store volatile i8 0, ptr %15, align 1
  %24 = load ptr, ptr %6, align 8
  %25 = call i32 @tvb_reported_length(ptr noundef %24)
  %26 = icmp ult i32 %25, 4
  br i1 %26, label %27, label %28

27:                                               ; preds = %4
  store i1 false, ptr %5, align 1
  store i32 1, ptr %16, align 4
  br label %166

28:                                               ; preds = %4
  %29 = load ptr, ptr %6, align 8
  %30 = call zeroext i16 @tvb_get_ntohs(ptr noundef %29, i32 noundef 0)
  store i16 %30, ptr %10, align 2
  %31 = load ptr, ptr %6, align 8
  %32 = call zeroext i16 @tvb_get_ntohs(ptr noundef %31, i32 noundef 2)
  store i16 %32, ptr %11, align 2
  %33 = load i16, ptr %11, align 2
  %34 = zext i16 %33 to i32
  %35 = icmp ne i32 %34, 0
  br i1 %35, label %36, label %37

36:                                               ; preds = %28
  store i1 false, ptr %5, align 1
  store i32 1, ptr %16, align 4
  br label %166

37:                                               ; preds = %28
  %38 = load ptr, ptr %6, align 8
  %39 = call ptr @tvb_new_subset_remaining(ptr noundef %38, i32 noundef 4)
  store ptr %39, ptr %13, align 8
  %40 = load ptr, ptr %7, align 8
  %41 = getelementptr inbounds nuw %struct._packet_info, ptr %40, i32 0, i32 0
  %42 = load ptr, ptr %41, align 8
  store ptr %42, ptr %12, align 8
  call void @llvm.lifetime.start.p0(i64 8, ptr %17) #18
  call void @llvm.lifetime.start.p0(i64 4, ptr %18) #18
  store volatile i32 0, ptr %18, align 4
  call void @llvm.lifetime.start.p0(i64 24, ptr %19) #18
  call void @llvm.lifetime.start.p0(i64 248, ptr %20) #18
  call void @except_setup_try(ptr noundef %19, ptr noundef %20, ptr noundef @dissect_eth_over_ib.catch_spec, i64 noundef 1)
  %43 = getelementptr inbounds nuw %struct.except_catch, ptr %20, i32 0, i32 3
  %44 = getelementptr inbounds [1 x %struct.__jmp_buf_tag], ptr %43, i64 0, i64 0
  %45 = call i32 @_setjmp(ptr noundef %44) #19
  %46 = icmp ne i32 %45, 0
  br i1 %46, label %47, label %49

47:                                               ; preds = %37
  %48 = getelementptr inbounds nuw %struct.except_catch, ptr %20, i32 0, i32 2
  store volatile ptr %48, ptr %17, align 8
  br label %50

49:                                               ; preds = %37
  store volatile ptr null, ptr %17, align 8
  br label %50

50:                                               ; preds = %49, %47
  %51 = load volatile i32, ptr %18, align 4
  %52 = and i32 %51, 1
  %53 = icmp ne i32 %52, 0
  br i1 %53, label %54, label %57

54:                                               ; preds = %50
  %55 = load volatile i32, ptr %18, align 4
  %56 = or i32 %55, 2
  store volatile i32 %56, ptr %18, align 4
  br label %57

57:                                               ; preds = %54, %50
  %58 = load volatile i32, ptr %18, align 4
  %59 = and i32 %58, -2
  store volatile i32 %59, ptr %18, align 4
  %60 = load volatile i32, ptr %18, align 4
  %61 = icmp eq i32 %60, 0
  br i1 %61, label %62, label %75

62:                                               ; preds = %57
  %63 = load volatile ptr, ptr %17, align 8
  %64 = icmp eq ptr %63, null
  br i1 %64, label %65, label %75

65:                                               ; preds = %62
  %66 = load ptr, ptr @ethertype_dissector_table, align 8
  %67 = load i16, ptr %10, align 2
  %68 = zext i16 %67 to i32
  %69 = load ptr, ptr %13, align 8
  %70 = load ptr, ptr %7, align 8
  %71 = load ptr, ptr %8, align 8
  %72 = call i32 @dissector_try_uint(ptr noundef %66, i32 noundef %68, ptr noundef %69, ptr noundef %70, ptr noundef %71)
  %73 = icmp ne i32 %72, 0
  %74 = zext i1 %73 to i8
  store volatile i8 %74, ptr %15, align 1
  br label %75

75:                                               ; preds = %65, %62, %57
  %76 = load volatile i32, ptr %18, align 4
  %77 = icmp eq i32 %76, 0
  br i1 %77, label %78, label %123

78:                                               ; preds = %75
  %79 = load volatile ptr, ptr %17, align 8
  %80 = icmp ne ptr %79, null
  br i1 %80, label %81, label %123

81:                                               ; preds = %78
  %82 = load volatile ptr, ptr %17, align 8
  %83 = getelementptr inbounds nuw %struct.except_t, ptr %82, i32 0, i32 0
  %84 = getelementptr inbounds nuw %struct.except_id_t, ptr %83, i32 0, i32 1
  %85 = load volatile i64, ptr %84, align 8
  %86 = icmp eq i64 %85, 3
  br i1 %86, label %105, label %87

87:                                               ; preds = %81
  %88 = load volatile ptr, ptr %17, align 8
  %89 = getelementptr inbounds nuw %struct.except_t, ptr %88, i32 0, i32 0
  %90 = getelementptr inbounds nuw %struct.except_id_t, ptr %89, i32 0, i32 1
  %91 = load volatile i64, ptr %90, align 8
  %92 = icmp eq i64 %91, 2
  br i1 %92, label %105, label %93

93:                                               ; preds = %87
  %94 = load volatile ptr, ptr %17, align 8
  %95 = getelementptr inbounds nuw %struct.except_t, ptr %94, i32 0, i32 0
  %96 = getelementptr inbounds nuw %struct.except_id_t, ptr %95, i32 0, i32 1
  %97 = load volatile i64, ptr %96, align 8
  %98 = icmp eq i64 %97, 7
  br i1 %98, label %105, label %99

99:                                               ; preds = %93
  %100 = load volatile ptr, ptr %17, align 8
  %101 = getelementptr inbounds nuw %struct.except_t, ptr %100, i32 0, i32 0
  %102 = getelementptr inbounds nuw %struct.except_id_t, ptr %101, i32 0, i32 1
  %103 = load volatile i64, ptr %102, align 8
  %104 = icmp eq i64 %103, 9
  br i1 %104, label %105, label %123

105:                                              ; preds = %99, %93, %87, %81
  %106 = load volatile i32, ptr %18, align 4
  %107 = or i32 %106, 1
  store volatile i32 %107, ptr %18, align 4
  %108 = icmp ne i32 %107, 0
  br i1 %108, label %109, label %123

109:                                              ; preds = %105
  %110 = load ptr, ptr %13, align 8
  %111 = load ptr, ptr %7, align 8
  %112 = load ptr, ptr %8, align 8
  %113 = load volatile ptr, ptr %17, align 8
  %114 = getelementptr inbounds nuw %struct.except_t, ptr %113, i32 0, i32 0
  %115 = getelementptr inbounds nuw %struct.except_id_t, ptr %114, i32 0, i32 1
  %116 = load volatile i64, ptr %115, align 8
  %117 = load volatile ptr, ptr %17, align 8
  %118 = getelementptr inbounds nuw %struct.except_t, ptr %117, i32 0, i32 1
  %119 = load volatile ptr, ptr %118, align 8
  call void @show_exception(ptr noundef %110, ptr noundef %111, ptr noundef %112, i64 noundef %116, ptr noundef %119)
  store volatile i8 1, ptr %15, align 1
  %120 = load ptr, ptr %12, align 8
  %121 = load ptr, ptr %7, align 8
  %122 = getelementptr inbounds nuw %struct._packet_info, ptr %121, i32 0, i32 0
  store ptr %120, ptr %122, align 8
  br label %123

123:                                              ; preds = %109, %105, %99, %78, %75
  %124 = load volatile i32, ptr %18, align 4
  %125 = and i32 %124, 1
  %126 = icmp ne i32 %125, 0
  br i1 %126, label %132, label %127

127:                                              ; preds = %123
  %128 = load volatile ptr, ptr %17, align 8
  %129 = icmp ne ptr %128, null
  br i1 %129, label %130, label %132

130:                                              ; preds = %127
  %131 = load volatile ptr, ptr %17, align 8
  call void @except_rethrow(ptr noundef %131) #20
  unreachable

132:                                              ; preds = %127, %123
  %133 = getelementptr inbounds nuw %struct.except_catch, ptr %20, i32 0, i32 2
  %134 = getelementptr inbounds nuw %struct.except_t, ptr %133, i32 0, i32 2
  %135 = load volatile ptr, ptr %134, align 8
  call void @except_free(ptr noundef %135)
  %136 = call ptr @except_pop()
  call void @llvm.lifetime.end.p0(i64 248, ptr %20) #18
  call void @llvm.lifetime.end.p0(i64 24, ptr %19) #18
  call void @llvm.lifetime.end.p0(i64 4, ptr %18) #18
  call void @llvm.lifetime.end.p0(i64 8, ptr %17) #18
  %137 = load volatile i8, ptr %15, align 1, !range !6, !noundef !7
  %138 = trunc i8 %137 to i1
  br i1 %138, label %139, label %163

139:                                              ; preds = %132
  call void @llvm.lifetime.start.p0(i64 8, ptr %21) #18
  call void @llvm.lifetime.start.p0(i64 8, ptr %22) #18
  %140 = load ptr, ptr %14, align 8
  %141 = getelementptr inbounds nuw %struct.infinibandinfo, ptr %140, i32 0, i32 0
  %142 = load ptr, ptr %141, align 8
  %143 = load i32, ptr @hf_infiniband_payload, align 4
  %144 = load ptr, ptr %6, align 8
  %145 = load ptr, ptr %6, align 8
  %146 = call i32 @tvb_reported_length(ptr noundef %145)
  %147 = sub i32 %146, 6
  %148 = call ptr @proto_tree_add_item(ptr noundef %142, i32 noundef %143, ptr noundef %144, i32 noundef 0, i32 noundef %147, i32 noundef 0)
  store ptr %148, ptr %21, align 8
  %149 = load ptr, ptr %21, align 8
  call void (ptr, ptr, ...) @proto_item_set_text(ptr noundef %149, ptr noundef @.str.1230, ptr noundef @.str.1589)
  %150 = load ptr, ptr %21, align 8
  %151 = load i32, ptr @ett_payload, align 4
  %152 = call ptr @proto_item_add_subtree(ptr noundef %150, i32 noundef %151)
  store ptr %152, ptr %22, align 8
  %153 = load ptr, ptr %22, align 8
  %154 = load i32, ptr @hf_infiniband_etype, align 4
  %155 = load ptr, ptr %6, align 8
  %156 = load i16, ptr %10, align 2
  %157 = zext i16 %156 to i32
  %158 = call ptr @proto_tree_add_uint(ptr noundef %153, i32 noundef %154, ptr noundef %155, i32 noundef 0, i32 noundef 2, i32 noundef %157)
  %159 = load ptr, ptr %22, align 8
  %160 = load i32, ptr @hf_infiniband_reserved, align 4
  %161 = load ptr, ptr %6, align 8
  %162 = call ptr @proto_tree_add_item(ptr noundef %159, i32 noundef %160, ptr noundef %161, i32 noundef 2, i32 noundef 2, i32 noundef 0)
  call void @llvm.lifetime.end.p0(i64 8, ptr %22) #18
  call void @llvm.lifetime.end.p0(i64 8, ptr %21) #18
  br label %163

163:                                              ; preds = %139, %132
  %164 = load volatile i8, ptr %15, align 1, !range !6, !noundef !7
  %165 = trunc i8 %164 to i1
  store i1 %165, ptr %5, align 1
  store i32 1, ptr %16, align 4
  br label %166

166:                                              ; preds = %163, %36, %27
  call void @llvm.lifetime.end.p0(i64 1, ptr %15) #18
  call void @llvm.lifetime.end.p0(i64 8, ptr %14) #18
  call void @llvm.lifetime.end.p0(i64 8, ptr %13) #18
  call void @llvm.lifetime.end.p0(i64 8, ptr %12) #18
  call void @llvm.lifetime.end.p0(i64 2, ptr %11) #18
  call void @llvm.lifetime.end.p0(i64 2, ptr %10) #18
  %167 = load i1, ptr %5, align 1
  ret i1 %167
}