; Function Attrs: null_pointer_is_valid sspstrong uwtable
define internal zeroext i1 @dissect_eth_over_ib(ptr noundef %0, ptr noundef %1, ptr noundef %2, ptr noundef readonly captures(none) %3) #0 {
  %5 = alloca i8, align 1
  %6 = alloca ptr, align 8
  %7 = alloca i32, align 4
  %8 = alloca %struct.except_stacknode, align 8
  %9 = alloca %struct.except_catch, align 8
  call void @llvm.lifetime.start.p0(i64 1, ptr nonnull %5)
  store volatile i8 0, ptr %5, align 1
  %10 = call i32 @tvb_reported_length(ptr noundef %0)
  %11 = icmp ult i32 %10, 4
  br i1 %11, label %84, label %12

12:                                               ; preds = %4
  %13 = call zeroext i16 @tvb_get_ntohs(ptr noundef %0, i32 noundef 0)
  %14 = call zeroext i16 @tvb_get_ntohs(ptr noundef %0, i32 noundef 2)
  %.not = icmp eq i16 %14, 0
  br i1 %.not, label %15, label %84

15:                                               ; preds = %12
  %16 = call ptr @tvb_new_subset_remaining(ptr noundef %0, i32 noundef 4)
  %17 = load ptr, ptr %1, align 8
  call void @llvm.lifetime.start.p0(i64 8, ptr nonnull %6)
  call void @llvm.lifetime.start.p0(i64 4, ptr nonnull %7)
  store volatile i32 0, ptr %7, align 4
  call void @llvm.lifetime.start.p0(i64 24, ptr nonnull %8) #14
  call void @llvm.lifetime.start.p0(i64 248, ptr nonnull %9) #14
  call void @except_setup_try(ptr noundef nonnull %8, ptr noundef nonnull %9, ptr noundef nonnull @dissect_eth_over_ib.catch_spec, i64 noundef 1)
  %18 = getelementptr inbounds nuw i8, ptr %9, i64 48
  %19 = call i32 @_setjmp(ptr noundef nonnull %18) #17
  %.not45 = icmp eq i32 %19, 0
  %20 = getelementptr inbounds nuw i8, ptr %9, i64 16
  %.sink = select i1 %.not45, ptr null, ptr %20
  store volatile ptr %.sink, ptr %6, align 8
  %.0..0..0..0.4 = load volatile i32, ptr %7, align 4
  %21 = and i32 %.0..0..0..0.4, 1
  %.not46 = icmp eq i32 %21, 0
  br i1 %.not46, label %24, label %22

22:                                               ; preds = %15
  %.0..0..0..0.5 = load volatile i32, ptr %7, align 4
  %23 = or i32 %.0..0..0..0.5, 2
  store volatile i32 %23, ptr %7, align 4
  br label %24

24:                                               ; preds = %22, %15
  %.0..0..0..0.6 = load volatile i32, ptr %7, align 4
  %25 = and i32 %.0..0..0..0.6, -2
  store volatile i32 %25, ptr %7, align 4
  %.0..0..0..0.7 = load volatile i32, ptr %7, align 4
  %26 = icmp eq i32 %.0..0..0..0.7, 0
  br i1 %26, label %27, label %35

27:                                               ; preds = %24
  %.0..0..0..0.11 = load volatile ptr, ptr %6, align 8
  %28 = icmp eq ptr %.0..0..0..0.11, null
  br i1 %28, label %29, label %35

29:                                               ; preds = %27
  %30 = load ptr, ptr @ethertype_dissector_table, align 8
  %31 = zext i16 %13 to i32
  %32 = call i32 @dissector_try_uint(ptr noundef %30, i32 noundef %31, ptr noundef %16, ptr noundef %1, ptr noundef %2)
  %33 = icmp ne i32 %32, 0
  %34 = zext i1 %33 to i8
  store volatile i8 %34, ptr %5, align 1
  br label %35

35:                                               ; preds = %29, %27, %24
  %.0..0..0..0.8 = load volatile i32, ptr %7, align 4
  %36 = icmp eq i32 %.0..0..0..0.8, 0
  br i1 %36, label %37, label %60

37:                                               ; preds = %35
  %.0..0..0..0.12 = load volatile ptr, ptr %6, align 8
  %.not47 = icmp eq ptr %.0..0..0..0.12, null
  br i1 %.not47, label %60, label %38

38:                                               ; preds = %37
  %.0..0..0..0.13 = load volatile ptr, ptr %6, align 8
  %39 = getelementptr inbounds nuw i8, ptr %.0..0..0..0.13, i64 8
  %40 = load volatile i64, ptr %39, align 8
  %41 = icmp eq i64 %40, 3
  br i1 %41, label %54, label %42

42:                                               ; preds = %38
  %.0..0..0..0.14 = load volatile ptr, ptr %6, align 8
  %43 = getelementptr inbounds nuw i8, ptr %.0..0..0..0.14, i64 8
  %44 = load volatile i64, ptr %43, align 8
  %45 = icmp eq i64 %44, 2
  br i1 %45, label %54, label %46

46:                                               ; preds = %42
  %.0..0..0..0.15 = load volatile ptr, ptr %6, align 8
  %47 = getelementptr inbounds nuw i8, ptr %.0..0..0..0.15, i64 8
  %48 = load volatile i64, ptr %47, align 8
  %49 = icmp eq i64 %48, 7
  br i1 %49, label %54, label %50

50:                                               ; preds = %46
  %.0..0..0..0.16 = load volatile ptr, ptr %6, align 8
  %51 = getelementptr inbounds nuw i8, ptr %.0..0..0..0.16, i64 8
  %52 = load volatile i64, ptr %51, align 8
  %53 = icmp eq i64 %52, 9
  br i1 %53, label %54, label %60

54:                                               ; preds = %50, %46, %42, %38
  %.0..0..0..0.9 = load volatile i32, ptr %7, align 4
  %55 = or i32 %.0..0..0..0.9, 1
  store volatile i32 %55, ptr %7, align 4
  %.0..0..0..0.17 = load volatile ptr, ptr %6, align 8
  %56 = getelementptr inbounds nuw i8, ptr %.0..0..0..0.17, i64 8
  %57 = load volatile i64, ptr %56, align 8
  %.0..0..0..0.18 = load volatile ptr, ptr %6, align 8
  %58 = getelementptr inbounds nuw i8, ptr %.0..0..0..0.18, i64 16
  %59 = load volatile ptr, ptr %58, align 8
  call void @show_exception(ptr noundef %16, ptr noundef %1, ptr noundef %2, i64 noundef %57, ptr noundef %59)
  store volatile i8 1, ptr %5, align 1
  store ptr %17, ptr %1, align 8
  br label %60

60:                                               ; preds = %54, %50, %37, %35
  %.0..0..0..0.10 = load volatile i32, ptr %7, align 4
  %61 = and i32 %.0..0..0..0.10, 1
  %.not48 = icmp eq i32 %61, 0
  br i1 %.not48, label %62, label %64

62:                                               ; preds = %60
  %.0..0..0..0.19 = load volatile ptr, ptr %6, align 8
  %.not49 = icmp eq ptr %.0..0..0..0.19, null
  br i1 %.not49, label %64, label %63

63:                                               ; preds = %62
  %.0..0..0..0.20 = load volatile ptr, ptr %6, align 8
  call void @except_rethrow(ptr noundef %.0..0..0..0.20) #18
  unreachable

64:                                               ; preds = %62, %60
  %65 = getelementptr inbounds nuw i8, ptr %9, i64 40
  %66 = load volatile ptr, ptr %65, align 8
  call void @except_free(ptr noundef %66)
  %67 = call ptr @except_pop()
  call void @llvm.lifetime.end.p0(i64 248, ptr nonnull %9) #14
  call void @llvm.lifetime.end.p0(i64 24, ptr nonnull %8) #14
  call void @llvm.lifetime.end.p0(i64 4, ptr nonnull %7)
  call void @llvm.lifetime.end.p0(i64 8, ptr nonnull %6)
  %.0..0..0..0.21 = load volatile i8, ptr %5, align 1, !range !6, !noundef !7
  %68 = trunc nuw i8 %.0..0..0..0.21 to i1
  br i1 %68, label %69, label %82

69:                                               ; preds = %64
  %70 = load ptr, ptr %3, align 8
  %71 = load i32, ptr @hf_infiniband_payload, align 4
  %72 = call i32 @tvb_reported_length(ptr noundef %0)
  %73 = add i32 %72, -6
  %74 = call ptr @proto_tree_add_item(ptr noundef %70, i32 noundef %71, ptr noundef %0, i32 noundef 0, i32 noundef %73, i32 noundef 0)
  call void (ptr, ptr, ...) @proto_item_set_text(ptr noundef %74, ptr noundef nonnull @.str.1230, ptr noundef nonnull @.str.1589)
  %75 = load i32, ptr @ett_payload, align 4
  %76 = call ptr @proto_item_add_subtree(ptr noundef %74, i32 noundef %75)
  %77 = load i32, ptr @hf_infiniband_etype, align 4
  %78 = zext i16 %13 to i32
  %79 = call ptr @proto_tree_add_uint(ptr noundef %76, i32 noundef %77, ptr noundef %0, i32 noundef 0, i32 noundef 2, i32 noundef %78)
  %80 = load i32, ptr @hf_infiniband_reserved, align 4
  %81 = call ptr @proto_tree_add_item(ptr noundef %76, i32 noundef %80, ptr noundef %0, i32 noundef 2, i32 noundef 2, i32 noundef 0)
  br label %82

82:                                               ; preds = %69, %64
  %.0..0..0..0.22 = load volatile i8, ptr %5, align 1, !range !6, !noundef !7
  %83 = trunc nuw i8 %.0..0..0..0.22 to i1
  br label %84

84:                                               ; preds = %12, %4, %82
  %.0 = phi i1 [ %83, %82 ], [ false, %4 ], [ false, %12 ]
  call void @llvm.lifetime.end.p0(i64 1, ptr nonnull %5)
  ret i1 %.0
}